target datalayout = "e-m:e-p270:32:32-p271:32:32-p272:64:64-i64:64-i128:128-f80:128-n8:16:32:64-S128"
target triple = "x86_64-pc-linux-gnu"

%"class.Assimp::MDLImporter" = type <{ %"class.Assimp::BaseImporter", i32, [4 x i8], %"class.std::__cxx11::basic_string", ptr, i32, [4 x i8], ptr, ptr, i32, %"struct.Assimp::MDL::HalfLife::HL1ImportSettings", i8 }>
%"class.Assimp::BaseImporter" = type { ptr, double, double, %"class.std::__cxx11::basic_string", %"class.std::__exception_ptr::exception_ptr", ptr }
%"class.std::__exception_ptr::exception_ptr" = type { ptr }
%"class.std::__cxx11::basic_string" = type { %"struct.std::__cxx11::basic_string<char>::_Alloc_hider", i64, %union.anon }
%"struct.std::__cxx11::basic_string<char>::_Alloc_hider" = type { ptr }
%union.anon = type { i64, [8 x i8] }
%"struct.Assimp::MDL::HalfLife::HL1ImportSettings" = type { i8, i8, i8, i8, i8, i8, i8, i8, i8, i8, i8 }
%struct.aiScene = type { i32, ptr, i32, ptr, i32, ptr, i32, ptr, i32, ptr, i32, ptr, i32, ptr, ptr, %struct.aiString, i32, ptr, ptr }
%struct.aiString = type { i32, [1024 x i8] }
%struct.aiMesh = type { i32, i32, i32, ptr, ptr, ptr, ptr, [8 x ptr], [8 x ptr], [8 x i32], ptr, i32, ptr, i32, %struct.aiString, i32, ptr, i32, %struct.aiAABB, ptr }
%struct.aiAABB = type { %class.aiVector3t, %class.aiVector3t }
%class.aiVector3t = type { float, float, float }

; Function Attrs: mustprogress nounwind uwtable
define hidden void @_ZN6Assimp11HMPImporter21GenerateTextureCoordsEjj(ptr noundef nonnull align 8 dereferenceable(159) %0, i32 noundef %1, i32 noundef %2) #2 align 2 {
  %4 = alloca ptr, align 8
  %5 = alloca i32, align 4
  %6 = alloca i32, align 4
  %7 = alloca ptr, align 8
  %8 = alloca i32, align 4
  %9 = alloca float, align 4
  %10 = alloca float, align 4
  %11 = alloca i32, align 4
  %12 = alloca i32, align 4
  store ptr %0, ptr %4, align 8
  store i32 %1, ptr %5, align 4
  store i32 %2, ptr %6, align 4
  %13 = load ptr, ptr %4, align 8
  call void @llvm.lifetime.start.p0(i64 8, ptr %7) #17
  %14 = getelementptr inbounds nuw %"class.Assimp::MDLImporter", ptr %13, i32 0, i32 8
  %15 = load ptr, ptr %14, align 8
  %16 = getelementptr inbounds nuw %struct.aiScene, ptr %15, i32 0, i32 3
  %17 = load ptr, ptr %16, align 8
  %18 = getelementptr inbounds ptr, ptr %17, i64 0
  %19 = load ptr, ptr %18, align 8
  %20 = getelementptr inbounds nuw %struct.aiMesh, ptr %19, i32 0, i32 8
  %21 = getelementptr inbounds [8 x ptr], ptr %20, i64 0, i64 0
  %22 = load ptr, ptr %21, align 8
  store ptr %22, ptr %7, align 8
  %23 = load ptr, ptr %7, align 8
  %24 = icmp eq ptr %23, null
  br i1 %24, label %25, label %26

25:                                               ; preds = %3
  store i32 1, ptr %8, align 4
  br label %92

26:                                               ; preds = %3
  %27 = load i32, ptr %6, align 4
  %28 = uitofp i32 %27 to float
  %29 = fcmp oeq float %28, 0.000000e+00
  br i1 %29, label %34, label %30

30:                                               ; preds = %26
  %31 = load i32, ptr %5, align 4
  %32 = uitofp i32 %31 to double
  %33 = fcmp oeq double %32, 0.000000e+00
  br i1 %33, label %34, label %35

34:                                               ; preds = %30, %26
  store i32 1, ptr %8, align 4
  br label %92

35:                                               ; preds = %30
  call void @llvm.lifetime.start.p0(i64 4, ptr %9) #17
  %36 = load i32, ptr %6, align 4
  %37 = uitofp i32 %36 to float
  %38 = fdiv float 1.000000e+00, %37
  %39 = load i32, ptr %6, align 4
  %40 = uitofp i32 %39 to float
  %41 = fdiv float 1.000000e+00, %40
  %42 = load i32, ptr %6, align 4
  %43 = uitofp i32 %42 to float
  %44 = fdiv float %41, %43
  %45 = fadd float %38, %44
  store float %45, ptr %9, align 4
  call void @llvm.lifetime.start.p0(i64 4, ptr %10) #17
  %46 = load i32, ptr %5, align 4
  %47 = uitofp i32 %46 to float
  %48 = fdiv float 1.000000e+00, %47
  %49 = load i32, ptr %5, align 4
  %50 = uitofp i32 %49 to float
  %51 = fdiv float 1.000000e+00, %50
  %52 = load i32, ptr %5, align 4
  %53 = uitofp i32 %52 to float
  %54 = fdiv float %51, %53
  %55 = fadd float %48, %54
  store float %55, ptr %10, align 4
  call void @llvm.lifetime.start.p0(i64 4, ptr %11) #17
  store i32 0, ptr %11, align 4
  br label %56

56:                                               ; preds = %88, %35
  %57 = load i32, ptr %11, align 4
  %58 = load i32, ptr %6, align 4
  %59 = icmp ult i32 %57, %58
  br i1 %59, label %61, label %60

60:                                               ; preds = %56
  store i32 2, ptr %8, align 4
  call void @llvm.lifetime.end.p0(i64 4, ptr %11) #17
  br label %91

61:                                               ; preds = %56
  call void @llvm.lifetime.start.p0(i64 4, ptr %12) #17
  store i32 0, ptr %12, align 4
  br label %62

62:                                               ; preds = %82, %61
  %63 = load i32, ptr %12, align 4
  %64 = load i32, ptr %5, align 4
  %65 = icmp ult i32 %63, %64
  br i1 %65, label %67, label %66

66:                                               ; preds = %62
  store i32 5, ptr %8, align 4
  call void @llvm.lifetime.end.p0(i64 4, ptr %12) #17
  br label %87

67:                                               ; preds = %62
  %68 = load float, ptr %9, align 4
  %69 = load i32, ptr %11, align 4
  %70 = uitofp i32 %69 to float
  %71 = fmul float %68, %70
  %72 = load ptr, ptr %7, align 8
  %73 = getelementptr inbounds nuw %class.aiVector3t, ptr %72, i32 0, i32 1
  store float %71, ptr %73, align 4
  %74 = load float, ptr %10, align 4
  %75 = load i32, ptr %12, align 4
  %76 = uitofp i32 %75 to float
  %77 = fmul float %74, %76
  %78 = load ptr, ptr %7, align 8
  %79 = getelementptr inbounds nuw %class.aiVector3t, ptr %78, i32 0, i32 0
  store float %77, ptr %79, align 4
  %80 = load ptr, ptr %7, align 8
  %81 = getelementptr inbounds nuw %class.aiVector3t, ptr %80, i32 0, i32 2
  store float 0.000000e+00, ptr %81, align 4
  br label %82

82:                                               ; preds = %67
  %83 = load i32, ptr %12, align 4
  %84 = add i32 %83, 1
  store i32 %84, ptr %12, align 4
  %85 = load ptr, ptr %7, align 8
  %86 = getelementptr inbounds nuw %class.aiVector3t, ptr %85, i32 1
  store ptr %86, ptr %7, align 8
  br label %62, !llvm.loop !8

87:                                               ; preds = %66
  br label %88

88:                                               ; preds = %87
  %89 = load i32, ptr %11, align 4
  %90 = add i32 %89, 1
  store i32 %90, ptr %11, align 4
  br label %56, !llvm.loop !9

91:                                               ; preds = %60
  call void @llvm.lifetime.end.p0(i64 4, ptr %10) #17
  call void @llvm.lifetime.end.p0(i64 4, ptr %9) #17
  store i32 0, ptr %8, align 4
  br label %92

92:                                               ; preds = %91, %34, %25
  call void @llvm.lifetime.end.p0(i64 8, ptr %7) #17
  %93 = load i32, ptr %8, align 4
  switch i32 %93, label %95 [
    i32 0, label %94
    i32 1, label %94
  ]

94:                                               ; preds = %92, %92
  ret void

95:                                               ; preds = %92
  unreachable
}