; Function Attrs: mustprogress nofree norecurse nosync nounwind memory(readwrite, inaccessiblemem: none) uwtable
define hidden void @_ZN6Assimp11HMPImporter21GenerateTextureCoordsEjj(ptr noundef nonnull readonly align 8 captures(none) dereferenceable(159) %0, i32 noundef %1, i32 noundef %2) local_unnamed_addr #12 align 2 {
  %4 = getelementptr inbounds nuw i8, ptr %0, i64 136
  %5 = load ptr, ptr %4, align 8
  %6 = getelementptr inbounds nuw i8, ptr %5, i64 24
  %7 = load ptr, ptr %6, align 8
  %8 = load ptr, ptr %7, align 8
  %9 = getelementptr inbounds nuw i8, ptr %8, i64 112
  %10 = load ptr, ptr %9, align 8
  %11 = icmp eq ptr %10, null
  br i1 %11, label %.loopexit, label %12

12:                                               ; preds = %3
  %13 = icmp eq i32 %2, 0
  %14 = icmp eq i32 %1, 0
  %or.cond = or i1 %14, %13
  br i1 %or.cond, label %.loopexit, label %.split.us

.split.us:                                        ; preds = %12
  %15 = uitofp i32 %2 to float
  %16 = fdiv float 1.000000e+00, %15
  %17 = fdiv float %16, %15
  %18 = fadd float %16, %17
  %19 = uitofp i32 %1 to float
  %20 = fdiv float 1.000000e+00, %19
  %21 = fdiv float %20, %19
  %22 = fadd float %20, %21
  br label %.preheader.us

.preheader.us:                                    ; preds = %._crit_edge.us, %.split.us
  %.02330.us = phi i32 [ 0, %.split.us ], [ %32, %._crit_edge.us ]
  %.02429.us = phi ptr [ %10, %.split.us ], [ %31, %._crit_edge.us ]
  %23 = uitofp i32 %.02330.us to float
  %24 = fmul float %18, %23
  br label %25

25:                                               ; preds = %.preheader.us, %25
  %.028.us = phi i32 [ 0, %.preheader.us ], [ %30, %25 ]
  %.127.us = phi ptr [ %.02429.us, %.preheader.us ], [ %31, %25 ]
  %26 = getelementptr inbounds nuw i8, ptr %.127.us, i64 4
  store float %24, ptr %26, align 4
  %27 = uitofp i32 %.028.us to float
  %28 = fmul float %22, %27
  store float %28, ptr %.127.us, align 4
  %29 = getelementptr inbounds nuw i8, ptr %.127.us, i64 8
  store float 0.000000e+00, ptr %29, align 4
  %30 = add nuw i32 %.028.us, 1
  %31 = getelementptr inbounds nuw i8, ptr %.127.us, i64 12
  %exitcond.not = icmp eq i32 %30, %1
  br i1 %exitcond.not, label %._crit_edge.us, label %25, !llvm.loop !6

._crit_edge.us:                                   ; preds = %25
  %32 = add nuw i32 %.02330.us, 1
  %exitcond31.not = icmp eq i32 %32, %2
  br i1 %exitcond31.not, label %.loopexit, label %.preheader.us, !llvm.loop !7

.loopexit:                                        ; preds = %._crit_edge.us, %12, %3
  ret void
}